; Function Attrs: nounwind uwtable
define internal range(i32 0, 2) i32 @test_kdf_krb5kdf() #0 {
  %1 = alloca [4 x %struct.ossl_param_st], align 16
  %2 = alloca [16 x i8], align 16
  %3 = alloca %struct.ossl_param_st, align 8
  %4 = alloca %struct.ossl_param_st, align 8
  %5 = alloca %struct.ossl_param_st, align 8
  call void @llvm.lifetime.start.p0(i64 160, ptr nonnull %1) #6
  call void @llvm.lifetime.start.p0(i64 16, ptr nonnull %2) #6
  %6 = getelementptr inbounds nuw i8, ptr %1, i64 40
  call void @OSSL_PARAM_construct_utf8_string(ptr dead_on_unwind nonnull writable sret(%struct.ossl_param_st) align 8 %1, ptr noundef nonnull @.str.74, ptr noundef nonnull @.str.171, i64 noundef 0) #6
  %7 = getelementptr inbounds nuw i8, ptr %1, i64 80
  call void @llvm.lifetime.start.p0(i64 40, ptr nonnull %3) #6
  call void @OSSL_PARAM_construct_octet_string(ptr dead_on_unwind nonnull writable sret(%struct.ossl_param_st) align 8 %3, ptr noundef nonnull @.str.80, ptr noundef nonnull @test_kdf_krb5kdf.key, i64 noundef 16) #6
  call void @llvm.memcpy.p0.p0.i64(ptr noundef nonnull align 8 dereferenceable(40) %6, ptr noundef nonnull align 8 dereferenceable(40) %3, i64 40, i1 false), !tbaa.struct !10
  call void @llvm.lifetime.end.p0(i64 40, ptr nonnull %3) #6
  %8 = getelementptr inbounds nuw i8, ptr %1, i64 120
  call void @llvm.lifetime.start.p0(i64 40, ptr nonnull %4) #6
  call void @OSSL_PARAM_construct_octet_string(ptr dead_on_unwind nonnull writable sret(%struct.ossl_param_st) align 8 %4, ptr noundef nonnull @.str.172, ptr noundef nonnull @test_kdf_krb5kdf.constant, i64 noundef 5) #6
  call void @llvm.memcpy.p0.p0.i64(ptr noundef nonnull align 16 dereferenceable(40) %7, ptr noundef nonnull align 8 dereferenceable(40) %4, i64 40, i1 false), !tbaa.struct !10
  call void @llvm.lifetime.end.p0(i64 40, ptr nonnull %4) #6
  call void @llvm.lifetime.start.p0(i64 40, ptr nonnull %5) #6
  call void @OSSL_PARAM_construct_end(ptr dead_on_unwind nonnull writable sret(%struct.ossl_param_st) align 8 %5) #6
  call void @llvm.memcpy.p0.p0.i64(ptr noundef nonnull align 8 dereferenceable(40) %8, ptr noundef nonnull align 8 dereferenceable(40) %5, i64 40, i1 false), !tbaa.struct !10
  call void @llvm.lifetime.end.p0(i64 40, ptr nonnull %5) #6
  %9 = call ptr @EVP_KDF_fetch(ptr noundef null, ptr noundef nonnull @.str.174, ptr noundef null) #6
  %10 = call ptr @EVP_KDF_CTX_new(ptr noundef %9) #6
  call void @EVP_KDF_free(ptr noundef %9) #6
  %11 = call i32 @test_ptr(ptr noundef nonnull @.str.53, i32 noundef 1859, ptr noundef nonnull @.str.173, ptr noundef %10) #6
  %.not = icmp eq i32 %11, 0
  br i1 %.not, label %19, label %12

12:                                               ; preds = %0
  %13 = call i32 @EVP_KDF_derive(ptr noundef %10, ptr noundef nonnull %2, i64 noundef 16, ptr noundef nonnull %1) #6
  %14 = call i32 @test_int_gt(ptr noundef nonnull @.str.53, i32 noundef 1860, ptr noundef nonnull @.str.120, ptr noundef nonnull @.str.67, i32 noundef %13, i32 noundef 0) #6
  %.not6 = icmp eq i32 %14, 0
  br i1 %.not6, label %19, label %15

15:                                               ; preds = %12
  %16 = call i32 @test_mem_eq(ptr noundef nonnull @.str.53, i32 noundef 1861, ptr noundef nonnull @.str.68, ptr noundef nonnull @.str.69, ptr noundef nonnull %2, i64 noundef 16, ptr noundef nonnull @test_kdf_krb5kdf.expected, i64 noundef 16) #6
  %17 = icmp ne i32 %16, 0
  %18 = zext i1 %17 to i32
  br label %19

19:                                               ; preds = %15, %12, %0
  %20 = phi i32 [ 0, %12 ], [ 0, %0 ], [ %18, %15 ]
  call void @EVP_KDF_CTX_free(ptr noundef %10) #6
  call void @llvm.lifetime.end.p0(i64 16, ptr nonnull %2) #6
  call void @llvm.lifetime.end.p0(i64 160, ptr nonnull %1) #6
  ret i32 %20
}